; Function Attrs: nounwind uwtable
define noalias nonnull ptr @l_Lean_mkBoolDataValueEx___boxed(ptr noundef %0) local_unnamed_addr #0 {
  %2 = ptrtoint ptr %0 to i64
  %3 = and i64 %2, 1
  %.not = icmp eq i64 %3, 0
  br i1 %.not, label %4, label %lean_dec.exit

4:                                                ; preds = %1
  %5 = load i32, ptr %0, align 4, !tbaa !8
  %6 = icmp sgt i32 %5, 1
  br i1 %6, label %7, label %9, !prof !11

7:                                                ; preds = %4
  %8 = add nsw i32 %5, -1
  store i32 %8, ptr %0, align 4, !tbaa !8
  br label %lean_dec.exit

9:                                                ; preds = %4
  %.not.i = icmp eq i32 %5, 0
  br i1 %.not.i, label %lean_dec.exit, label %10

10:                                               ; preds = %9
  tail call void @lean_dec_ref_cold(ptr noundef nonnull %0) #6
  br label %lean_dec.exit

lean_dec.exit:                                    ; preds = %10, %9, %7, %1
  tail call void @lean_inc_heartbeat() #6
  %11 = tail call noalias ptr @mi_malloc_small(i64 noundef 16) #6
  %12 = icmp eq ptr %11, null
  br i1 %12, label %13, label %lean_mk_bool_data_value.exit

13:                                               ; preds = %lean_dec.exit
  tail call void @lean_internal_panic_out_of_memory() #7
  unreachable

lean_mk_bool_data_value.exit:                     ; preds = %lean_dec.exit
  %14 = lshr i64 %2, 1
  %15 = trunc i64 %14 to i8
  %16 = getelementptr inbounds nuw i8, ptr %11, i64 4
  %17 = getelementptr inbounds nuw i8, ptr %11, i64 8
  store i64 0, ptr %17, align 8, !tbaa !12
  store i32 1, ptr %11, align 4, !tbaa !8
  store i32 16777232, ptr %16, align 4
  store i8 %15, ptr %17, align 1, !tbaa !14
  ret ptr %11
}